#include <math.h>
#include <stdio.h>
#include <stdlib.h>
#include <string.h>
#include <iostream>
using namespace std;

int main(){
	int n;
	int i;
	int j;
	int d;
	int k;
	int max = 0;
    int f[100001];
	cin>>n;
	for(i=0;i<n;i++)
	{
		cin>>f[i];
	}
	cin>>k;
	for(i=0;i<n;i++)
	{
		if(f[i] == k)
		{
			for(j = i+1; j< n ; j ++)
			{
				f[j-1] = f[j];
			}
			i--;
			n--;
		}
	}
	for(i=0;i<n;i++)
	{
		if(i==0)
		{
			cout<<f[i];
		}
		else
		{
			cout<<" "<<f[i];
		}
	}
    
return 0;
}
