; ModuleID = 'source-C-CXX/41/1538.cpp'
source_filename = "source-C-CXX/41/1538.cpp"
target datalayout = "e-m:e-p270:32:32-p271:32:32-p272:64:64-i64:64-f80:128-n8:16:32:64-S128"
target triple = "x86_64-pc-linux-gnu"

%"class.std::ios_base::Init" = type { i8 }
%"class.std::basic_istream" = type { i32 (...)**, i64, %"class.std::basic_ios" }
%"class.std::basic_ios" = type { %"class.std::ios_base", %"class.std::basic_ostream"*, i8, i8, %"class.std::basic_streambuf"*, %"class.std::ctype"*, %"class.std::num_put"*, %"class.std::num_get"* }
%"class.std::ios_base" = type { i32 (...)**, i64, i64, i32, i32, i32, %"struct.std::ios_base::_Callback_list"*, %"struct.std::ios_base::_Words", [8 x %"struct.std::ios_base::_Words"], i32, %"struct.std::ios_base::_Words"*, %"class.std::locale" }
%"struct.std::ios_base::_Callback_list" = type { %"struct.std::ios_base::_Callback_list"*, void (i32, %"class.std::ios_base"*, i32)*, i32, i32 }
%"struct.std::ios_base::_Words" = type { i8*, i64 }
%"class.std::locale" = type { %"class.std::locale::_Impl"* }
%"class.std::locale::_Impl" = type { i32, %"class.std::locale::facet"**, i64, %"class.std::locale::facet"**, i8** }
%"class.std::locale::facet" = type <{ i32 (...)**, i32, [4 x i8] }>
%"class.std::basic_ostream" = type { i32 (...)**, %"class.std::basic_ios" }
%"class.std::basic_streambuf" = type { i32 (...)**, i8*, i8*, i8*, i8*, i8*, i8*, %"class.std::locale" }
%"class.std::ctype" = type <{ %"class.std::locale::facet.base", [4 x i8], %struct.__locale_struct*, i8, [7 x i8], i32*, i32*, i16*, i8, [256 x i8], [256 x i8], i8, [6 x i8] }>
%"class.std::locale::facet.base" = type <{ i32 (...)**, i32 }>
%struct.__locale_struct = type { [13 x %struct.__locale_data*], i16*, i32*, i32*, [13 x i8*] }
%struct.__locale_data = type opaque
%"class.std::num_put" = type { %"class.std::locale::facet.base", [4 x i8] }
%"class.std::num_get" = type { %"class.std::locale::facet.base", [4 x i8] }

@_ZStL8__ioinit = internal global %"class.std::ios_base::Init" zeroinitializer, align 1
@__dso_handle = external hidden global i8
@_ZSt3cin = external global %"class.std::basic_istream", align 8
@_ZSt4cout = external global %"class.std::basic_ostream", align 8
@.str = private unnamed_addr constant [2 x i8] c" \00", align 1
@llvm.global_ctors = appending global [1 x { i32, void ()*, i8* }] [{ i32, void ()*, i8* } { i32 65535, void ()* @_GLOBAL__sub_I_1538.cpp, i8* null }]

declare void @_ZNSt8ios_base4InitC1Ev(%"class.std::ios_base::Init"* nonnull align 1 dereferenceable(1)) unnamed_addr #0

; Function Attrs: nounwind
declare void @_ZNSt8ios_base4InitD1Ev(%"class.std::ios_base::Init"* nonnull align 1 dereferenceable(1)) unnamed_addr #1

; Function Attrs: nofree nounwind
declare i32 @__cxa_atexit(void (i8*)*, i8*, i8*) local_unnamed_addr #2

; Function Attrs: mustprogress norecurse sspstrong uwtable
define dso_local i32 @main() local_unnamed_addr #3 {
  %1 = alloca i32, align 4
  %2 = alloca i32, align 4
  %3 = alloca [100001 x i32], align 16
  %4 = bitcast i32* %1 to i8*
  call void @llvm.lifetime.start.p0i8(i64 4, i8* nonnull %4) #6
  %5 = bitcast i32* %2 to i8*
  call void @llvm.lifetime.start.p0i8(i64 4, i8* nonnull %5) #6
  %6 = bitcast [100001 x i32]* %3 to i8*
  call void @llvm.lifetime.start.p0i8(i64 400004, i8* nonnull %6) #6
  %7 = call nonnull align 8 dereferenceable(16) %"class.std::basic_istream"* @_ZNSirsERi(%"class.std::basic_istream"* nonnull align 8 dereferenceable(16) @_ZSt3cin, i32* nonnull align 4 dereferenceable(4) %1)
  %8 = load i32, i32* %1, align 4, !tbaa !5
  %9 = icmp sgt i32 %8, 0
  br i1 %9, label %10, label %18

10:                                               ; preds = %0, %10
  %11 = phi i64 [ %14, %10 ], [ 0, %0 ]
  %12 = getelementptr inbounds [100001 x i32], [100001 x i32]* %3, i64 0, i64 %11
  %13 = call nonnull align 8 dereferenceable(16) %"class.std::basic_istream"* @_ZNSirsERi(%"class.std::basic_istream"* nonnull align 8 dereferenceable(16) @_ZSt3cin, i32* nonnull align 4 dereferenceable(4) %12)
  %14 = add nuw nsw i64 %11, 1
  %15 = load i32, i32* %1, align 4, !tbaa !5
  %16 = sext i32 %15 to i64
  %17 = icmp slt i64 %14, %16
  br i1 %17, label %10, label %18, !llvm.loop !9

18:                                               ; preds = %10, %0
  %19 = call nonnull align 8 dereferenceable(16) %"class.std::basic_istream"* @_ZNSirsERi(%"class.std::basic_istream"* nonnull align 8 dereferenceable(16) @_ZSt3cin, i32* nonnull align 4 dereferenceable(4) %2)
  %20 = load i32, i32* %2, align 4
  %21 = load i32, i32* %1, align 4, !tbaa !5
  %22 = icmp sgt i32 %21, 0
  br i1 %22, label %23, label %209

23:                                               ; preds = %18
  %24 = getelementptr inbounds [100001 x i32], [100001 x i32]* %3, i64 0, i64 1
  %25 = getelementptr inbounds [100001 x i32], [100001 x i32]* %3, i64 0, i64 1
  br label %34

26:                                               ; preds = %194
  %27 = icmp sgt i32 %195, 0
  br i1 %27, label %28, label %209

28:                                               ; preds = %26
  %29 = getelementptr inbounds [100001 x i32], [100001 x i32]* %3, i64 0, i64 0
  %30 = load i32, i32* %29, align 16, !tbaa !5
  %31 = call nonnull align 8 dereferenceable(8) %"class.std::basic_ostream"* @_ZNSolsEi(%"class.std::basic_ostream"* nonnull align 8 dereferenceable(8) @_ZSt4cout, i32 %30)
  %32 = load i32, i32* %1, align 4, !tbaa !5
  %33 = icmp sgt i32 %32, 1
  br i1 %33, label %199, label %209

34:                                               ; preds = %23, %194
  %35 = phi i32 [ %195, %194 ], [ %21, %23 ]
  %36 = phi i32 [ %197, %194 ], [ 0, %23 ]
  %37 = sext i32 %36 to i64
  %38 = getelementptr inbounds [100001 x i32], [100001 x i32]* %3, i64 0, i64 %37
  %39 = load i32, i32* %38, align 4, !tbaa !5
  %40 = icmp eq i32 %39, %20
  br i1 %40, label %41, label %194

41:                                               ; preds = %34
  %42 = add nsw i32 %36, 1
  %43 = icmp slt i32 %42, %35
  br i1 %43, label %44, label %191

44:                                               ; preds = %41
  %45 = sext i32 %42 to i64
  %46 = add i32 %35, -2
  %47 = sub i32 %46, %36
  %48 = zext i32 %47 to i64
  %49 = add nuw nsw i64 %48, 1
  %50 = icmp ult i32 %47, 7
  %51 = add i32 %35, -2
  %52 = icmp sgt i32 %36, %51
  %53 = select i1 %50, i1 true, i1 %52
  br i1 %53, label %135, label %54

54:                                               ; preds = %44
  %55 = sext i32 %36 to i64
  %56 = getelementptr [100001 x i32], [100001 x i32]* %3, i64 0, i64 %55
  %57 = add i32 %35, -2
  %58 = sub i32 %57, %36
  %59 = zext i32 %58 to i64
  %60 = add nsw i64 %55, %59
  %61 = getelementptr i32, i32* %24, i64 %60
  %62 = getelementptr [100001 x i32], [100001 x i32]* %3, i64 0, i64 %45
  %63 = add nsw i64 %45, %59
  %64 = getelementptr i32, i32* %25, i64 %63
  %65 = icmp ult i32* %56, %64
  %66 = icmp ult i32* %62, %61
  %67 = and i1 %65, %66
  br i1 %67, label %135, label %68

68:                                               ; preds = %54
  %69 = and i64 %49, 8589934584
  %70 = add nsw i64 %69, %45
  %71 = trunc i64 %69 to i32
  %72 = add i32 %36, %71
  %73 = add nsw i64 %69, -8
  %74 = lshr exact i64 %73, 3
  %75 = add nuw nsw i64 %74, 1
  %76 = and i64 %75, 1
  %77 = icmp eq i64 %73, 0
  br i1 %77, label %115, label %78

78:                                               ; preds = %68
  %79 = and i64 %75, 4611686018427387902
  br label %80

80:                                               ; preds = %80, %78
  %81 = phi i64 [ 0, %78 ], [ %112, %80 ]
  %82 = phi i64 [ %79, %78 ], [ %113, %80 ]
  %83 = add i64 %81, %45
  %84 = trunc i64 %81 to i32
  %85 = add i32 %36, %84
  %86 = getelementptr inbounds [100001 x i32], [100001 x i32]* %3, i64 0, i64 %83
  %87 = bitcast i32* %86 to <4 x i32>*
  %88 = load <4 x i32>, <4 x i32>* %87, align 4, !tbaa !5, !alias.scope !11
  %89 = getelementptr inbounds i32, i32* %86, i64 4
  %90 = bitcast i32* %89 to <4 x i32>*
  %91 = load <4 x i32>, <4 x i32>* %90, align 4, !tbaa !5, !alias.scope !11
  %92 = sext i32 %85 to i64
  %93 = getelementptr inbounds [100001 x i32], [100001 x i32]* %3, i64 0, i64 %92
  %94 = bitcast i32* %93 to <4 x i32>*
  store <4 x i32> %88, <4 x i32>* %94, align 4, !tbaa !5, !alias.scope !14, !noalias !11
  %95 = getelementptr inbounds i32, i32* %93, i64 4
  %96 = bitcast i32* %95 to <4 x i32>*
  store <4 x i32> %91, <4 x i32>* %96, align 4, !tbaa !5, !alias.scope !14, !noalias !11
  %97 = or i64 %81, 8
  %98 = add i64 %97, %45
  %99 = trunc i64 %97 to i32
  %100 = add i32 %36, %99
  %101 = getelementptr inbounds [100001 x i32], [100001 x i32]* %3, i64 0, i64 %98
  %102 = bitcast i32* %101 to <4 x i32>*
  %103 = load <4 x i32>, <4 x i32>* %102, align 4, !tbaa !5, !alias.scope !11
  %104 = getelementptr inbounds i32, i32* %101, i64 4
  %105 = bitcast i32* %104 to <4 x i32>*
  %106 = load <4 x i32>, <4 x i32>* %105, align 4, !tbaa !5, !alias.scope !11
  %107 = sext i32 %100 to i64
  %108 = getelementptr inbounds [100001 x i32], [100001 x i32]* %3, i64 0, i64 %107
  %109 = bitcast i32* %108 to <4 x i32>*
  store <4 x i32> %103, <4 x i32>* %109, align 4, !tbaa !5, !alias.scope !14, !noalias !11
  %110 = getelementptr inbounds i32, i32* %108, i64 4
  %111 = bitcast i32* %110 to <4 x i32>*
  store <4 x i32> %106, <4 x i32>* %111, align 4, !tbaa !5, !alias.scope !14, !noalias !11
  %112 = add nuw i64 %81, 16
  %113 = add i64 %82, -2
  %114 = icmp eq i64 %113, 0
  br i1 %114, label %115, label %80, !llvm.loop !16

115:                                              ; preds = %80, %68
  %116 = phi i64 [ 0, %68 ], [ %112, %80 ]
  %117 = icmp eq i64 %76, 0
  br i1 %117, label %133, label %118

118:                                              ; preds = %115
  %119 = add i64 %116, %45
  %120 = trunc i64 %116 to i32
  %121 = add i32 %36, %120
  %122 = getelementptr inbounds [100001 x i32], [100001 x i32]* %3, i64 0, i64 %119
  %123 = bitcast i32* %122 to <4 x i32>*
  %124 = load <4 x i32>, <4 x i32>* %123, align 4, !tbaa !5, !alias.scope !11
  %125 = getelementptr inbounds i32, i32* %122, i64 4
  %126 = bitcast i32* %125 to <4 x i32>*
  %127 = load <4 x i32>, <4 x i32>* %126, align 4, !tbaa !5, !alias.scope !11
  %128 = sext i32 %121 to i64
  %129 = getelementptr inbounds [100001 x i32], [100001 x i32]* %3, i64 0, i64 %128
  %130 = bitcast i32* %129 to <4 x i32>*
  store <4 x i32> %124, <4 x i32>* %130, align 4, !tbaa !5, !alias.scope !14, !noalias !11
  %131 = getelementptr inbounds i32, i32* %129, i64 4
  %132 = bitcast i32* %131 to <4 x i32>*
  store <4 x i32> %127, <4 x i32>* %132, align 4, !tbaa !5, !alias.scope !14, !noalias !11
  br label %133

133:                                              ; preds = %115, %118
  %134 = icmp eq i64 %49, %69
  br i1 %134, label %191, label %135

135:                                              ; preds = %54, %44, %133
  %136 = phi i64 [ %45, %54 ], [ %45, %44 ], [ %70, %133 ]
  %137 = phi i32 [ %36, %54 ], [ %36, %44 ], [ %72, %133 ]
  %138 = trunc i64 %136 to i32
  %139 = sub i32 %35, %138
  %140 = xor i32 %138, -1
  %141 = add i32 %35, %140
  %142 = and i32 %139, 3
  %143 = icmp eq i32 %142, 0
  br i1 %143, label %158, label %144

144:                                              ; preds = %135, %144
  %145 = phi i64 [ %152, %144 ], [ %136, %135 ]
  %146 = phi i32 [ %153, %144 ], [ %137, %135 ]
  %147 = phi i32 [ %154, %144 ], [ %142, %135 ]
  %148 = getelementptr inbounds [100001 x i32], [100001 x i32]* %3, i64 0, i64 %145
  %149 = load i32, i32* %148, align 4, !tbaa !5
  %150 = sext i32 %146 to i64
  %151 = getelementptr inbounds [100001 x i32], [100001 x i32]* %3, i64 0, i64 %150
  store i32 %149, i32* %151, align 4, !tbaa !5
  %152 = add nsw i64 %145, 1
  %153 = trunc i64 %145 to i32
  %154 = add i32 %147, -1
  %155 = icmp eq i32 %154, 0
  br i1 %155, label %156, label %144, !llvm.loop !18

156:                                              ; preds = %144
  %157 = trunc i64 %145 to i32
  br label %158

158:                                              ; preds = %156, %135
  %159 = phi i64 [ %136, %135 ], [ %152, %156 ]
  %160 = phi i32 [ %137, %135 ], [ %157, %156 ]
  %161 = icmp ult i32 %141, 3
  br i1 %161, label %191, label %162

162:                                              ; preds = %158, %162
  %163 = phi i64 [ %187, %162 ], [ %159, %158 ]
  %164 = phi i32 [ %188, %162 ], [ %160, %158 ]
  %165 = getelementptr inbounds [100001 x i32], [100001 x i32]* %3, i64 0, i64 %163
  %166 = load i32, i32* %165, align 4, !tbaa !5
  %167 = sext i32 %164 to i64
  %168 = getelementptr inbounds [100001 x i32], [100001 x i32]* %3, i64 0, i64 %167
  store i32 %166, i32* %168, align 4, !tbaa !5
  %169 = add nsw i64 %163, 1
  %170 = getelementptr inbounds [100001 x i32], [100001 x i32]* %3, i64 0, i64 %169
  %171 = load i32, i32* %170, align 4, !tbaa !5
  %172 = shl i64 %163, 32
  %173 = ashr exact i64 %172, 32
  %174 = getelementptr inbounds [100001 x i32], [100001 x i32]* %3, i64 0, i64 %173
  store i32 %171, i32* %174, align 4, !tbaa !5
  %175 = add nsw i64 %163, 2
  %176 = getelementptr inbounds [100001 x i32], [100001 x i32]* %3, i64 0, i64 %175
  %177 = load i32, i32* %176, align 4, !tbaa !5
  %178 = shl i64 %169, 32
  %179 = ashr exact i64 %178, 32
  %180 = getelementptr inbounds [100001 x i32], [100001 x i32]* %3, i64 0, i64 %179
  store i32 %177, i32* %180, align 4, !tbaa !5
  %181 = add nsw i64 %163, 3
  %182 = getelementptr inbounds [100001 x i32], [100001 x i32]* %3, i64 0, i64 %181
  %183 = load i32, i32* %182, align 4, !tbaa !5
  %184 = shl i64 %175, 32
  %185 = ashr exact i64 %184, 32
  %186 = getelementptr inbounds [100001 x i32], [100001 x i32]* %3, i64 0, i64 %185
  store i32 %183, i32* %186, align 4, !tbaa !5
  %187 = add nsw i64 %163, 4
  %188 = trunc i64 %181 to i32
  %189 = trunc i64 %187 to i32
  %190 = icmp eq i32 %35, %189
  br i1 %190, label %191, label %162, !llvm.loop !20

191:                                              ; preds = %158, %162, %133, %41
  %192 = add nsw i32 %36, -1
  %193 = add nsw i32 %35, -1
  store i32 %193, i32* %1, align 4, !tbaa !5
  br label %194

194:                                              ; preds = %34, %191
  %195 = phi i32 [ %193, %191 ], [ %35, %34 ]
  %196 = phi i32 [ %192, %191 ], [ %36, %34 ]
  %197 = add nsw i32 %196, 1
  %198 = icmp slt i32 %197, %195
  br i1 %198, label %34, label %26, !llvm.loop !21

199:                                              ; preds = %28, %199
  %200 = phi i64 [ %206, %199 ], [ 1, %28 ]
  %201 = call nonnull align 8 dereferenceable(8) %"class.std::basic_ostream"* @_ZSt16__ostream_insertIcSt11char_traitsIcEERSt13basic_ostreamIT_T0_ES6_PKS3_l(%"class.std::basic_ostream"* nonnull align 8 dereferenceable(8) @_ZSt4cout, i8* nonnull getelementptr inbounds ([2 x i8], [2 x i8]* @.str, i64 0, i64 0), i64 1)
  %202 = getelementptr inbounds [100001 x i32], [100001 x i32]* %3, i64 0, i64 %200
  %203 = load i32, i32* %202, align 4, !tbaa !5
  %204 = call nonnull align 8 dereferenceable(8) %"class.std::basic_ostream"* @_ZNSolsEi(%"class.std::basic_ostream"* nonnull align 8 dereferenceable(8) @_ZSt4cout, i32 %203)
  %205 = load i32, i32* %1, align 4, !tbaa !5
  %206 = add nuw nsw i64 %200, 1
  %207 = sext i32 %205 to i64
  %208 = icmp slt i64 %206, %207
  br i1 %208, label %199, label %209, !llvm.loop !22

209:                                              ; preds = %199, %18, %28, %26
  call void @llvm.lifetime.end.p0i8(i64 400004, i8* nonnull %6) #6
  call void @llvm.lifetime.end.p0i8(i64 4, i8* nonnull %5) #6
  call void @llvm.lifetime.end.p0i8(i64 4, i8* nonnull %4) #6
  ret i32 0
}

; Function Attrs: argmemonly mustprogress nofree nosync nounwind willreturn
declare void @llvm.lifetime.start.p0i8(i64 immarg, i8* nocapture) #4

declare nonnull align 8 dereferenceable(16) %"class.std::basic_istream"* @_ZNSirsERi(%"class.std::basic_istream"* nonnull align 8 dereferenceable(16), i32* nonnull align 4 dereferenceable(4)) local_unnamed_addr #0

declare nonnull align 8 dereferenceable(8) %"class.std::basic_ostream"* @_ZNSolsEi(%"class.std::basic_ostream"* nonnull align 8 dereferenceable(8), i32) local_unnamed_addr #0

; Function Attrs: argmemonly mustprogress nofree nosync nounwind willreturn
declare void @llvm.lifetime.end.p0i8(i64 immarg, i8* nocapture) #4

declare nonnull align 8 dereferenceable(8) %"class.std::basic_ostream"* @_ZSt16__ostream_insertIcSt11char_traitsIcEERSt13basic_ostreamIT_T0_ES6_PKS3_l(%"class.std::basic_ostream"* nonnull align 8 dereferenceable(8), i8*, i64) local_unnamed_addr #0

; Function Attrs: sspstrong uwtable
define internal void @_GLOBAL__sub_I_1538.cpp() #5 section ".text.startup" {
  tail call void @_ZNSt8ios_base4InitC1Ev(%"class.std::ios_base::Init"* nonnull align 1 dereferenceable(1) @_ZStL8__ioinit)
  %1 = tail call i32 @__cxa_atexit(void (i8*)* bitcast (void (%"class.std::ios_base::Init"*)* @_ZNSt8ios_base4InitD1Ev to void (i8*)*), i8* getelementptr inbounds (%"class.std::ios_base::Init", %"class.std::ios_base::Init"* @_ZStL8__ioinit, i64 0, i32 0), i8* nonnull @__dso_handle) #6
  ret void
}


!llvm.module.flags = !{!0, !1, !2, !3}
!llvm.ident = !{!4}

!0 = !{i32 1, !"wchar_size", i32 4}
!1 = !{i32 7, !"PIC Level", i32 2}
!2 = !{i32 7, !"PIE Level", i32 2}
!3 = !{i32 7, !"uwtable", i32 1}
!4 = !{!"clang version 13.0.0"}
!5 = !{!6, !6, i64 0}
!6 = !{!"int", !7, i64 0}
!7 = !{!"omnipotent char", !8, i64 0}
!8 = !{!"Simple C++ TBAA"}
!9 = distinct !{!9, !10}
!10 = !{!"llvm.loop.mustprogress"}
!11 = !{!12}
!12 = distinct !{!12, !13}
!13 = distinct !{!13, !"LVerDomain"}
!14 = !{!15}
!15 = distinct !{!15, !13}
!16 = distinct !{!16, !10, !17}
!17 = !{!"llvm.loop.isvectorized", i32 1}
!18 = distinct !{!18, !19}
!19 = !{!"llvm.loop.unroll.disable"}
!20 = distinct !{!20, !10, !17}
!21 = distinct !{!21, !10}
!22 = distinct !{!22, !10, !23}
!23 = !{!"llvm.loop.peeled.count", i32 1}
